target datalayout = "e-m:e-p270:32:32-p271:32:32-p272:64:64-i64:64-i128:128-f80:128-n8:16:32:64-S128"
target triple = "x86_64-pc-linux-gnu"

%struct._radius_attr_info_t = type { ptr, %union._radius_attr_type_t, i32, i8, i8, ptr, ptr, ptr, i32, i32, i32, i32, i32, i32, ptr }
%union._radius_attr_type_t = type { i32 }

@.str = private unnamed_addr constant [4 x i8] c"%lu\00", align 1
@.str.3 = private unnamed_addr constant [8 x i8] c"Unknown\00", align 1
@.str.5 = private unnamed_addr constant [38 x i8] c"[unhandled signed integer length(%u)]\00", align 1
@.str.6 = private unnamed_addr constant [7 x i8] c"%s(%d)\00", align 1
@.str.7 = private unnamed_addr constant [3 x i8] c"%d\00", align 1

; Function Attrs: null_pointer_is_valid sspstrong uwtable
define hidden void @radius_signed(ptr noundef %0, ptr noundef %1, ptr noundef %2, ptr noundef %3, i32 noundef %4, i32 noundef %5, ptr noundef %6) #0 {
  %8 = alloca ptr, align 8
  %9 = alloca ptr, align 8
  %10 = alloca ptr, align 8
  %11 = alloca ptr, align 8
  %12 = alloca i32, align 4
  %13 = alloca i32, align 4
  %14 = alloca ptr, align 8
  %15 = alloca i32, align 4
  %16 = alloca i64, align 8
  %17 = alloca i32, align 4
  store ptr %0, ptr %8, align 8
  store ptr %1, ptr %9, align 8
  store ptr %2, ptr %10, align 8
  store ptr %3, ptr %11, align 8
  store i32 %4, ptr %12, align 4
  store i32 %5, ptr %13, align 4
  store ptr %6, ptr %14, align 8
  call void @llvm.lifetime.start.p0(i64 4, ptr %15) #17
  %18 = load i32, ptr %13, align 4
  switch i32 %18, label %52 [
    i32 1, label %19
    i32 2, label %24
    i32 3, label %29
    i32 4, label %33
    i32 8, label %37
  ]

19:                                               ; preds = %7
  %20 = load ptr, ptr %11, align 8
  %21 = load i32, ptr %12, align 4
  %22 = call zeroext i8 @tvb_get_uint8(ptr noundef %20, i32 noundef %21)
  %23 = zext i8 %22 to i32
  store i32 %23, ptr %15, align 4
  br label %55

24:                                               ; preds = %7
  %25 = load ptr, ptr %11, align 8
  %26 = load i32, ptr %12, align 4
  %27 = call zeroext i16 @tvb_get_ntohs(ptr noundef %25, i32 noundef %26)
  %28 = zext i16 %27 to i32
  store i32 %28, ptr %15, align 4
  br label %55

29:                                               ; preds = %7
  %30 = load ptr, ptr %11, align 8
  %31 = load i32, ptr %12, align 4
  %32 = call i32 @tvb_get_ntoh24(ptr noundef %30, i32 noundef %31)
  store i32 %32, ptr %15, align 4
  br label %55

33:                                               ; preds = %7
  %34 = load ptr, ptr %11, align 8
  %35 = load i32, ptr %12, align 4
  %36 = call i32 @tvb_get_ntohl(ptr noundef %34, i32 noundef %35)
  store i32 %36, ptr %15, align 4
  br label %55

37:                                               ; preds = %7
  call void @llvm.lifetime.start.p0(i64 8, ptr %16) #17
  %38 = load ptr, ptr %11, align 8
  %39 = load i32, ptr %12, align 4
  %40 = call i64 @tvb_get_ntoh64(ptr noundef %38, i32 noundef %39)
  store i64 %40, ptr %16, align 8
  %41 = load ptr, ptr %9, align 8
  %42 = load ptr, ptr %8, align 8
  %43 = getelementptr inbounds nuw %struct._radius_attr_info_t, ptr %42, i32 0, i32 10
  %44 = load i32, ptr %43, align 8
  %45 = load ptr, ptr %11, align 8
  %46 = load i32, ptr %12, align 4
  %47 = load i32, ptr %13, align 4
  %48 = load i64, ptr %16, align 8
  %49 = call ptr @proto_tree_add_int64(ptr noundef %41, i32 noundef %44, ptr noundef %45, i32 noundef %46, i32 noundef %47, i64 noundef %48)
  %50 = load ptr, ptr %14, align 8
  %51 = load i64, ptr %16, align 8
  call void (ptr, ptr, ...) @proto_item_append_text(ptr noundef %50, ptr noundef @.str, i64 noundef %51)
  store i32 1, ptr %17, align 4
  call void @llvm.lifetime.end.p0(i64 8, ptr %16) #17
  br label %81

52:                                               ; preds = %7
  %53 = load ptr, ptr %14, align 8
  %54 = load i32, ptr %13, align 4
  call void (ptr, ptr, ...) @proto_item_append_text(ptr noundef %53, ptr noundef @.str.5, i32 noundef %54)
  store i32 1, ptr %17, align 4
  br label %81

55:                                               ; preds = %33, %29, %24, %19
  %56 = load ptr, ptr %9, align 8
  %57 = load ptr, ptr %8, align 8
  %58 = getelementptr inbounds nuw %struct._radius_attr_info_t, ptr %57, i32 0, i32 9
  %59 = load i32, ptr %58, align 4
  %60 = load ptr, ptr %11, align 8
  %61 = load i32, ptr %12, align 4
  %62 = load i32, ptr %13, align 4
  %63 = load i32, ptr %15, align 4
  %64 = call ptr @proto_tree_add_int(ptr noundef %56, i32 noundef %59, ptr noundef %60, i32 noundef %61, i32 noundef %62, i32 noundef %63)
  %65 = load ptr, ptr %8, align 8
  %66 = getelementptr inbounds nuw %struct._radius_attr_info_t, ptr %65, i32 0, i32 7
  %67 = load ptr, ptr %66, align 8
  %68 = icmp ne ptr %67, null
  br i1 %68, label %69, label %77

69:                                               ; preds = %55
  %70 = load ptr, ptr %14, align 8
  %71 = load i32, ptr %15, align 4
  %72 = load ptr, ptr %8, align 8
  %73 = getelementptr inbounds nuw %struct._radius_attr_info_t, ptr %72, i32 0, i32 7
  %74 = load ptr, ptr %73, align 8
  %75 = call ptr @val_to_str_const(i32 noundef %71, ptr noundef %74, ptr noundef @.str.3)
  %76 = load i32, ptr %15, align 4
  call void (ptr, ptr, ...) @proto_item_append_text(ptr noundef %70, ptr noundef @.str.6, ptr noundef %75, i32 noundef %76)
  br label %80

77:                                               ; preds = %55
  %78 = load ptr, ptr %14, align 8
  %79 = load i32, ptr %15, align 4
  call void (ptr, ptr, ...) @proto_item_append_text(ptr noundef %78, ptr noundef @.str.7, i32 noundef %79)
  br label %80

80:                                               ; preds = %77, %69
  store i32 0, ptr %17, align 4
  br label %81

81:                                               ; preds = %80, %52, %37
  call void @llvm.lifetime.end.p0(i64 4, ptr %15) #17
  %82 = load i32, ptr %17, align 4
  switch i32 %82, label %84 [
    i32 0, label %83
    i32 1, label %83
  ]

83:                                               ; preds = %81, %81
  ret void

84:                                               ; preds = %81
  unreachable
}